target datalayout = "e-m:e-p270:32:32-p271:32:32-p272:64:64-i64:64-i128:128-f80:128-n8:16:32:64-S128"
target triple = "x86_64-pc-linux-gnu"

%struct.bufferevent_ops = type { ptr, i64, ptr, ptr, ptr, ptr, ptr, ptr, ptr }
%struct.bufferevent_pair = type { %struct.bufferevent_private, ptr, ptr }
%struct.bufferevent_private = type { %struct.bufferevent, ptr, i8, i16, i16, i16, i32, i32, %struct.event_callback, i32, i32, ptr, i64, i64, ptr, %union.anon.7, ptr }
%struct.bufferevent = type { ptr, ptr, %struct.event, %struct.event, ptr, ptr, %struct.event_watermark, %struct.event_watermark, ptr, ptr, ptr, ptr, %struct.timeval, %struct.timeval, i16 }
%struct.event = type { %struct.event_callback, %union.anon.0, i32, i16, i16, ptr, %union.anon.2, %struct.timeval }
%union.anon.0 = type { %struct.anon.1 }
%struct.anon.1 = type { ptr, ptr }
%union.anon.2 = type { %struct.anon.3 }
%struct.anon.3 = type { %struct.anon.4, %struct.timeval }
%struct.anon.4 = type { ptr, ptr }
%struct.event_watermark = type { i64, i64 }
%struct.timeval = type { i64, i64 }
%struct.event_callback = type { %struct.anon, i16, i8, i8, %union.anon, ptr }
%struct.anon = type { ptr, ptr }
%union.anon = type { ptr }
%union.anon.7 = type { %struct.sockaddr_in6 }
%struct.sockaddr_in6 = type { i16, i16, i32, %struct.in6_addr, i32 }
%struct.in6_addr = type { %union.anon.8 }
%union.anon.8 = type { [4 x i32] }

@bufferevent_ops_pair = hidden constant %struct.bufferevent_ops { ptr @.str, i64 0, ptr @be_pair_enable, ptr @be_pair_disable, ptr @be_pair_unlink, ptr @be_pair_destruct, ptr @bufferevent_generic_adj_timeouts_, ptr @be_pair_flush, ptr null }, align 8

; Function Attrs: nounwind uwtable
define internal ptr @bufferevent_pair_elt_new(ptr noundef %0, i32 noundef %1) #0 {
  %3 = alloca ptr, align 8
  %4 = alloca ptr, align 8
  %5 = alloca i32, align 4
  %6 = alloca ptr, align 8
  %7 = alloca i32, align 4
  store ptr %0, ptr %4, align 8
  store i32 %1, ptr %5, align 4
  call void @llvm.lifetime.start.p0(i64 8, ptr %6) #4
  %8 = call ptr @event_mm_calloc_(i64 noundef 1, i64 noundef 536)
  store ptr %8, ptr %6, align 8
  %9 = icmp ne ptr %8, null
  br i1 %9, label %11, label %10

10:                                               ; preds = %2
  store ptr null, ptr %3, align 8
  store i32 1, ptr %7, align 4
  br label %38

11:                                               ; preds = %2
  %12 = load ptr, ptr %6, align 8
  %13 = getelementptr inbounds nuw %struct.bufferevent_pair, ptr %12, i32 0, i32 0
  %14 = load ptr, ptr %4, align 8
  %15 = load i32, ptr %5, align 4
  %16 = call i32 @bufferevent_init_common_(ptr noundef %13, ptr noundef %14, ptr noundef @bufferevent_ops_pair, i32 noundef %15)
  %17 = icmp ne i32 %16, 0
  br i1 %17, label %18, label %20

18:                                               ; preds = %11
  %19 = load ptr, ptr %6, align 8
  call void @event_mm_free_(ptr noundef %19)
  store ptr null, ptr %3, align 8
  store i32 1, ptr %7, align 4
  br label %38

20:                                               ; preds = %11
  %21 = load ptr, ptr %6, align 8
  %22 = getelementptr inbounds nuw %struct.bufferevent_pair, ptr %21, i32 0, i32 0
  %23 = getelementptr inbounds nuw %struct.bufferevent_private, ptr %22, i32 0, i32 0
  %24 = getelementptr inbounds nuw %struct.bufferevent, ptr %23, i32 0, i32 5
  %25 = load ptr, ptr %24, align 8
  %26 = load ptr, ptr %6, align 8
  %27 = call ptr @evbuffer_add_cb(ptr noundef %25, ptr noundef @be_pair_outbuf_cb, ptr noundef %26)
  %28 = icmp ne ptr %27, null
  br i1 %28, label %33, label %29

29:                                               ; preds = %20
  %30 = load ptr, ptr %6, align 8
  %31 = getelementptr inbounds nuw %struct.bufferevent_pair, ptr %30, i32 0, i32 0
  %32 = getelementptr inbounds nuw %struct.bufferevent_private, ptr %31, i32 0, i32 0
  call void @bufferevent_free(ptr noundef %32)
  store ptr null, ptr %3, align 8
  store i32 1, ptr %7, align 4
  br label %38

33:                                               ; preds = %20
  %34 = load ptr, ptr %6, align 8
  %35 = getelementptr inbounds nuw %struct.bufferevent_pair, ptr %34, i32 0, i32 0
  %36 = getelementptr inbounds nuw %struct.bufferevent_private, ptr %35, i32 0, i32 0
  call void @bufferevent_init_generic_timeout_cbs_(ptr noundef %36)
  %37 = load ptr, ptr %6, align 8
  store ptr %37, ptr %3, align 8
  store i32 1, ptr %7, align 4
  br label %38

38:                                               ; preds = %33, %29, %18, %10
  call void @llvm.lifetime.end.p0(i64 8, ptr %6) #4
  %39 = load ptr, ptr %3, align 8
  ret ptr %39
}

; Function Attrs: nounwind uwtable
define i32 @bufferevent_pair_new(ptr noundef %0, i32 noundef %1, ptr noundef %2) #0 {
  %4 = alloca i32, align 4
  %5 = alloca ptr, align 8
  %6 = alloca i32, align 4
  %7 = alloca ptr, align 8
  %8 = alloca ptr, align 8
  %9 = alloca ptr, align 8
  %10 = alloca i32, align 4
  %11 = alloca i32, align 4
  store ptr %0, ptr %5, align 8
  store i32 %1, ptr %6, align 4
  store ptr %2, ptr %7, align 8
  call void @llvm.lifetime.start.p0(i64 8, ptr %8) #4
  store ptr null, ptr %8, align 8
  call void @llvm.lifetime.start.p0(i64 8, ptr %9) #4
  store ptr null, ptr %9, align 8
  call void @llvm.lifetime.start.p0(i64 4, ptr %10) #4
  %12 = load i32, ptr %6, align 4
  %13 = or i32 %12, 4
  store i32 %13, ptr %6, align 4
  %14 = load i32, ptr %6, align 4
  %15 = and i32 %14, -3
  store i32 %15, ptr %10, align 4
  %16 = load ptr, ptr %5, align 8
  %17 = load i32, ptr %6, align 4
  %18 = call ptr @bufferevent_pair_elt_new(ptr noundef %16, i32 noundef %17)
  store ptr %18, ptr %8, align 8
  %19 = load ptr, ptr %8, align 8
  %20 = icmp ne ptr %19, null
  br i1 %20, label %22, label %21

21:                                               ; preds = %3
  store i32 -1, ptr %4, align 4
  store i32 1, ptr %11, align 4
  br label %86

22:                                               ; preds = %3
  %23 = load ptr, ptr %5, align 8
  %24 = load i32, ptr %10, align 4
  %25 = call ptr @bufferevent_pair_elt_new(ptr noundef %23, i32 noundef %24)
  store ptr %25, ptr %9, align 8
  %26 = load ptr, ptr %9, align 8
  %27 = icmp ne ptr %26, null
  br i1 %27, label %32, label %28

28:                                               ; preds = %22
  %29 = load ptr, ptr %8, align 8
  %30 = getelementptr inbounds nuw %struct.bufferevent_pair, ptr %29, i32 0, i32 0
  %31 = getelementptr inbounds nuw %struct.bufferevent_private, ptr %30, i32 0, i32 0
  call void @bufferevent_free(ptr noundef %31)
  store i32 -1, ptr %4, align 4
  store i32 1, ptr %11, align 4
  br label %86

32:                                               ; preds = %22
  %33 = load i32, ptr %6, align 4
  %34 = and i32 %33, 2
  %35 = icmp ne i32 %34, 0
  br i1 %35, label %36, label %45

36:                                               ; preds = %32
  %37 = load ptr, ptr %9, align 8
  %38 = getelementptr inbounds nuw %struct.bufferevent_pair, ptr %37, i32 0, i32 0
  %39 = getelementptr inbounds nuw %struct.bufferevent_private, ptr %38, i32 0, i32 0
  %40 = load ptr, ptr %8, align 8
  %41 = getelementptr inbounds nuw %struct.bufferevent_pair, ptr %40, i32 0, i32 0
  %42 = getelementptr inbounds nuw %struct.bufferevent_private, ptr %41, i32 0, i32 11
  %43 = load ptr, ptr %42, align 8
  %44 = call i32 @bufferevent_enable_locking_(ptr noundef %39, ptr noundef %43)
  br label %45

45:                                               ; preds = %36, %32
  %46 = load ptr, ptr %9, align 8
  %47 = load ptr, ptr %8, align 8
  %48 = getelementptr inbounds nuw %struct.bufferevent_pair, ptr %47, i32 0, i32 1
  store ptr %46, ptr %48, align 8
  %49 = load ptr, ptr %8, align 8
  %50 = load ptr, ptr %9, align 8
  %51 = getelementptr inbounds nuw %struct.bufferevent_pair, ptr %50, i32 0, i32 1
  store ptr %49, ptr %51, align 8
  %52 = load ptr, ptr %8, align 8
  %53 = getelementptr inbounds nuw %struct.bufferevent_pair, ptr %52, i32 0, i32 0
  %54 = getelementptr inbounds nuw %struct.bufferevent_private, ptr %53, i32 0, i32 0
  %55 = getelementptr inbounds nuw %struct.bufferevent, ptr %54, i32 0, i32 4
  %56 = load ptr, ptr %55, align 8
  %57 = call i32 @evbuffer_freeze(ptr noundef %56, i32 noundef 0)
  %58 = load ptr, ptr %8, align 8
  %59 = getelementptr inbounds nuw %struct.bufferevent_pair, ptr %58, i32 0, i32 0
  %60 = getelementptr inbounds nuw %struct.bufferevent_private, ptr %59, i32 0, i32 0
  %61 = getelementptr inbounds nuw %struct.bufferevent, ptr %60, i32 0, i32 5
  %62 = load ptr, ptr %61, align 8
  %63 = call i32 @evbuffer_freeze(ptr noundef %62, i32 noundef 1)
  %64 = load ptr, ptr %9, align 8
  %65 = getelementptr inbounds nuw %struct.bufferevent_pair, ptr %64, i32 0, i32 0
  %66 = getelementptr inbounds nuw %struct.bufferevent_private, ptr %65, i32 0, i32 0
  %67 = getelementptr inbounds nuw %struct.bufferevent, ptr %66, i32 0, i32 4
  %68 = load ptr, ptr %67, align 8
  %69 = call i32 @evbuffer_freeze(ptr noundef %68, i32 noundef 0)
  %70 = load ptr, ptr %9, align 8
  %71 = getelementptr inbounds nuw %struct.bufferevent_pair, ptr %70, i32 0, i32 0
  %72 = getelementptr inbounds nuw %struct.bufferevent_private, ptr %71, i32 0, i32 0
  %73 = getelementptr inbounds nuw %struct.bufferevent, ptr %72, i32 0, i32 5
  %74 = load ptr, ptr %73, align 8
  %75 = call i32 @evbuffer_freeze(ptr noundef %74, i32 noundef 1)
  %76 = load ptr, ptr %8, align 8
  %77 = getelementptr inbounds nuw %struct.bufferevent_pair, ptr %76, i32 0, i32 0
  %78 = getelementptr inbounds nuw %struct.bufferevent_private, ptr %77, i32 0, i32 0
  %79 = load ptr, ptr %7, align 8
  %80 = getelementptr inbounds ptr, ptr %79, i64 0
  store ptr %78, ptr %80, align 8
  %81 = load ptr, ptr %9, align 8
  %82 = getelementptr inbounds nuw %struct.bufferevent_pair, ptr %81, i32 0, i32 0
  %83 = getelementptr inbounds nuw %struct.bufferevent_private, ptr %82, i32 0, i32 0
  %84 = load ptr, ptr %7, align 8
  %85 = getelementptr inbounds ptr, ptr %84, i64 1
  store ptr %83, ptr %85, align 8
  store i32 0, ptr %4, align 4
  store i32 1, ptr %11, align 4
  br label %86

86:                                               ; preds = %45, %28, %21
  call void @llvm.lifetime.end.p0(i64 4, ptr %10) #4
  call void @llvm.lifetime.end.p0(i64 8, ptr %9) #4
  call void @llvm.lifetime.end.p0(i64 8, ptr %8) #4
  %87 = load i32, ptr %4, align 4
  ret i32 %87
}