; Function Attrs: nounwind uwtable
define range(i32 -1, 1) i32 @bufferevent_pair_new(ptr noundef %0, i32 noundef %1, ptr noundef writeonly captures(none) %2) local_unnamed_addr #0 {
  %4 = or i32 %1, 4
  %5 = tail call ptr @event_mm_calloc_(i64 noundef 1, i64 noundef 536) #4
  %.not.i = icmp eq ptr %5, null
  br i1 %.not.i, label %bufferevent_pair_elt_new.exit.thread, label %6

6:                                                ; preds = %3
  %7 = tail call i32 @bufferevent_init_common_(ptr noundef nonnull %5, ptr noundef %0, ptr noundef nonnull @bufferevent_ops_pair, i32 noundef range(i32 4, 0) %4) #4
  %.not10.i = icmp eq i32 %7, 0
  br i1 %.not10.i, label %9, label %8

8:                                                ; preds = %6
  tail call void @event_mm_free_(ptr noundef nonnull %5) #4
  br label %bufferevent_pair_elt_new.exit.thread

9:                                                ; preds = %6
  %10 = getelementptr inbounds nuw i8, ptr %5, i64 264
  %11 = load ptr, ptr %10, align 8
  %12 = tail call ptr @evbuffer_add_cb(ptr noundef %11, ptr noundef nonnull @be_pair_outbuf_cb, ptr noundef nonnull %5) #4
  %.not11.i = icmp eq ptr %12, null
  br i1 %.not11.i, label %13, label %14

13:                                               ; preds = %9
  tail call void @bufferevent_free(ptr noundef nonnull %5) #4
  br label %bufferevent_pair_elt_new.exit.thread

14:                                               ; preds = %9
  tail call void @bufferevent_init_generic_timeout_cbs_(ptr noundef nonnull %5) #4
  %15 = tail call ptr @event_mm_calloc_(i64 noundef 1, i64 noundef 536) #4
  %.not.i28 = icmp eq ptr %15, null
  br i1 %.not.i28, label %25, label %16

16:                                               ; preds = %14
  %17 = and i32 %4, -3
  %18 = tail call i32 @bufferevent_init_common_(ptr noundef nonnull %15, ptr noundef %0, ptr noundef nonnull @bufferevent_ops_pair, i32 noundef range(i32 4, 0) %17) #4
  %.not10.i29 = icmp eq i32 %18, 0
  br i1 %.not10.i29, label %20, label %19

19:                                               ; preds = %16
  tail call void @event_mm_free_(ptr noundef nonnull %15) #4
  br label %25

20:                                               ; preds = %16
  %21 = getelementptr inbounds nuw i8, ptr %15, i64 264
  %22 = load ptr, ptr %21, align 8
  %23 = tail call ptr @evbuffer_add_cb(ptr noundef %22, ptr noundef nonnull @be_pair_outbuf_cb, ptr noundef nonnull %15) #4
  %.not11.i31 = icmp eq ptr %23, null
  br i1 %.not11.i31, label %24, label %26

24:                                               ; preds = %20
  tail call void @bufferevent_free(ptr noundef nonnull %15) #4
  br label %25

25:                                               ; preds = %19, %24, %14
  tail call void @bufferevent_free(ptr noundef nonnull %5) #4
  br label %bufferevent_pair_elt_new.exit.thread

26:                                               ; preds = %20
  tail call void @bufferevent_init_generic_timeout_cbs_(ptr noundef nonnull %15) #4
  %27 = and i32 %1, 2
  %.not27 = icmp eq i32 %27, 0
  br i1 %.not27, label %32, label %28

28:                                               ; preds = %26
  %29 = getelementptr inbounds nuw i8, ptr %5, i64 448
  %30 = load ptr, ptr %29, align 8
  %31 = tail call i32 @bufferevent_enable_locking_(ptr noundef nonnull %15, ptr noundef %30) #4
  br label %32

32:                                               ; preds = %28, %26
  %33 = getelementptr inbounds nuw i8, ptr %5, i64 520
  store ptr %15, ptr %33, align 8
  %34 = getelementptr inbounds nuw i8, ptr %15, i64 520
  store ptr %5, ptr %34, align 8
  %35 = getelementptr inbounds nuw i8, ptr %5, i64 256
  %36 = load ptr, ptr %35, align 8
  %37 = tail call i32 @evbuffer_freeze(ptr noundef %36, i32 noundef 0) #4
  %38 = load ptr, ptr %10, align 8
  %39 = tail call i32 @evbuffer_freeze(ptr noundef %38, i32 noundef 1) #4
  %40 = getelementptr inbounds nuw i8, ptr %15, i64 256
  %41 = load ptr, ptr %40, align 8
  %42 = tail call i32 @evbuffer_freeze(ptr noundef %41, i32 noundef 0) #4
  %43 = load ptr, ptr %21, align 8
  %44 = tail call i32 @evbuffer_freeze(ptr noundef %43, i32 noundef 1) #4
  store ptr %5, ptr %2, align 8
  %45 = getelementptr inbounds nuw i8, ptr %2, i64 8
  store ptr %15, ptr %45, align 8
  br label %bufferevent_pair_elt_new.exit.thread

bufferevent_pair_elt_new.exit.thread:             ; preds = %3, %13, %8, %32, %25
  %.0 = phi i32 [ 0, %32 ], [ -1, %25 ], [ -1, %8 ], [ -1, %13 ], [ -1, %3 ]
  ret i32 %.0
}